; Function Attrs: mustprogress uwtable
define hidden void @_ZN12old_interval3negEv(ptr noundef nonnull align 8 dereferenceable(112) %0) local_unnamed_addr #3 align 2 {
  %2 = getelementptr inbounds nuw i8, ptr %0, i64 8
  %3 = getelementptr inbounds nuw i8, ptr %0, i64 48
  tail call void @_ZSt4swapI11ext_numeralENSt9enable_ifIXsr6__and_ISt6__not_ISt15__is_tuple_likeIT_EESt21is_move_constructibleIS4_ESt18is_move_assignableIS4_EEE5valueEvE4typeERS4_SD_(ptr noundef nonnull align 8 dereferenceable(40) %2, ptr noundef nonnull align 8 dereferenceable(40) %3) #22
  %4 = getelementptr inbounds nuw i8, ptr %0, i64 88
  %5 = getelementptr inbounds nuw i8, ptr %0, i64 89
  %6 = load i8, ptr %4, align 8, !tbaa !51, !range !39, !noundef !40
  %7 = load i8, ptr %5, align 1, !tbaa !51, !range !39, !noundef !40
  store i8 %7, ptr %4, align 8, !tbaa !51
  store i8 %6, ptr %5, align 1, !tbaa !51
  %8 = getelementptr inbounds nuw i8, ptr %0, i64 96
  %9 = getelementptr inbounds nuw i8, ptr %0, i64 104
  %10 = load ptr, ptr %8, align 8, !tbaa !50
  %11 = load ptr, ptr %9, align 8, !tbaa !50
  store ptr %11, ptr %8, align 8, !tbaa !50
  store ptr %10, ptr %9, align 8, !tbaa !50
  %12 = load i32, ptr %2, align 8, !tbaa !3
  switch i32 %12, label %_ZN11ext_numeral3negEv.exit [
    i32 0, label %13
    i32 1, label %14
    i32 2, label %17
  ]

13:                                               ; preds = %1
  store i32 2, ptr %2, align 8, !tbaa !3
  br label %_ZN11ext_numeral3negEv.exit

14:                                               ; preds = %1
  %15 = getelementptr inbounds nuw i8, ptr %0, i64 16
  %16 = load ptr, ptr @_ZN8rational13g_mpq_managerE, align 8, !tbaa !14
  tail call void @_ZN11mpz_managerILb1EE3negER3mpz(ptr noundef nonnull align 8 dereferenceable(728) %16, ptr noundef nonnull align 8 dereferenceable(32) %15)
  br label %_ZN11ext_numeral3negEv.exit

17:                                               ; preds = %1
  store i32 0, ptr %2, align 8, !tbaa !3
  br label %_ZN11ext_numeral3negEv.exit

_ZN11ext_numeral3negEv.exit:                      ; preds = %1, %13, %14, %17
  %18 = load i32, ptr %3, align 8, !tbaa !3
  switch i32 %18, label %_ZN11ext_numeral3negEv.exit1 [
    i32 0, label %19
    i32 1, label %20
    i32 2, label %23
  ]

19:                                               ; preds = %_ZN11ext_numeral3negEv.exit
  store i32 2, ptr %3, align 8, !tbaa !3
  br label %_ZN11ext_numeral3negEv.exit1

20:                                               ; preds = %_ZN11ext_numeral3negEv.exit
  %21 = getelementptr inbounds nuw i8, ptr %0, i64 56
  %22 = load ptr, ptr @_ZN8rational13g_mpq_managerE, align 8, !tbaa !14
  tail call void @_ZN11mpz_managerILb1EE3negER3mpz(ptr noundef nonnull align 8 dereferenceable(728) %22, ptr noundef nonnull align 8 dereferenceable(32) %21)
  br label %_ZN11ext_numeral3negEv.exit1

23:                                               ; preds = %_ZN11ext_numeral3negEv.exit
  store i32 0, ptr %3, align 8, !tbaa !3
  br label %_ZN11ext_numeral3negEv.exit1

_ZN11ext_numeral3negEv.exit1:                     ; preds = %_ZN11ext_numeral3negEv.exit, %19, %20, %23
  ret void
}